; Function Attrs: nounwind uwtable
define internal void @reversed_dealloc(ptr noundef %0) #0 {
  tail call void @PyObject_GC_UnTrack(ptr noundef %0) #4
  %2 = getelementptr inbounds nuw i8, ptr %0, i64 24
  %3 = load ptr, ptr %2, align 8, !tbaa !117
  %.not.i = icmp eq ptr %3, null
  br i1 %.not.i, label %Py_XDECREF.exit, label %4

4:                                                ; preds = %1
  %5 = load i32, ptr %3, align 8, !tbaa !13
  %.not.i.i = icmp sgt i32 %5, -1
  br i1 %.not.i.i, label %6, label %Py_XDECREF.exit

6:                                                ; preds = %4
  %7 = add nsw i32 %5, -1
  store i32 %7, ptr %3, align 8, !tbaa !13
  %8 = icmp eq i32 %7, 0
  br i1 %8, label %9, label %Py_XDECREF.exit

9:                                                ; preds = %6
  tail call void @_Py_Dealloc(ptr noundef nonnull %3) #4
  br label %Py_XDECREF.exit

Py_XDECREF.exit:                                  ; preds = %1, %4, %6, %9
  %10 = getelementptr i8, ptr %0, i64 8
  %.val = load ptr, ptr %10, align 8, !tbaa !16
  %11 = getelementptr inbounds nuw i8, ptr %.val, i64 320
  %12 = load ptr, ptr %11, align 8, !tbaa !17
  tail call void %12(ptr noundef nonnull %0) #4
  ret void
}